; Function Attrs: mustprogress uwtable
define hidden void @_ZN3sat10aig_finder15validate_clauseENS_7literalES1_S1_RK6vectorI7svectorIS1_jELb1EjE(ptr noundef nonnull readonly align 8 captures(none) dereferenceable(160) %0, i32 %1, i32 %2, i32 %3, ptr noundef nonnull readonly align 8 captures(none) dereferenceable(8) %4) local_unnamed_addr #3 align 2 personality ptr @__gxx_personality_v0 {
  %6 = alloca %class.svector.3, align 8
  call void @llvm.lifetime.start.p0(i64 8, ptr nonnull %6) #23
  store ptr null, ptr %6, align 8, !tbaa !95
  invoke void @_ZN6vectorIN3sat7literalELb0EjE13expand_vectorEv(ptr noundef nonnull align 8 dereferenceable(8) %6)
          to label %7 unwind label %40

7:                                                ; preds = %5
  %.pre.i = load ptr, ptr %6, align 8, !tbaa !95
  %.phi.trans.insert.i = getelementptr inbounds i8, ptr %.pre.i, i64 -4
  %.pre2.i = load i32, ptr %.phi.trans.insert.i, align 4, !tbaa !33
  %8 = zext i32 %.pre2.i to i64
  %9 = getelementptr inbounds nuw %"class.sat::literal", ptr %.pre.i, i64 %8
  store i32 %1, ptr %9, align 4, !tbaa !33
  %10 = add i32 %.pre2.i, 1
  store i32 %10, ptr %.phi.trans.insert.i, align 4, !tbaa !33
  %11 = getelementptr inbounds i8, ptr %.pre.i, i64 -8
  %12 = load i32, ptr %11, align 4, !tbaa !33
  %13 = icmp eq i32 %10, %12
  br i1 %13, label %14, label %15

14:                                               ; preds = %7
  invoke void @_ZN6vectorIN3sat7literalELb0EjE13expand_vectorEv(ptr noundef nonnull align 8 dereferenceable(8) %6)
          to label %.noexc6 unwind label %40

.noexc6:                                          ; preds = %14
  %.pre.i3 = load ptr, ptr %6, align 8, !tbaa !95
  %.phi.trans.insert.i4 = getelementptr inbounds i8, ptr %.pre.i3, i64 -4
  %.pre2.i5 = load i32, ptr %.phi.trans.insert.i4, align 4, !tbaa !33
  br label %15

15:                                               ; preds = %7, %.noexc6
  %16 = phi i32 [ %.pre2.i5, %.noexc6 ], [ %10, %7 ]
  %17 = phi ptr [ %.pre.i3, %.noexc6 ], [ %.pre.i, %7 ]
  %18 = getelementptr inbounds i8, ptr %17, i64 -4
  %19 = zext i32 %16 to i64
  %20 = getelementptr inbounds nuw %"class.sat::literal", ptr %17, i64 %19
  store i32 %2, ptr %20, align 4, !tbaa !33
  %21 = add i32 %16, 1
  store i32 %21, ptr %18, align 4, !tbaa !33
  %22 = getelementptr inbounds i8, ptr %17, i64 -8
  %23 = load i32, ptr %22, align 4, !tbaa !33
  %24 = icmp eq i32 %21, %23
  br i1 %24, label %25, label %26

25:                                               ; preds = %15
  invoke void @_ZN6vectorIN3sat7literalELb0EjE13expand_vectorEv(ptr noundef nonnull align 8 dereferenceable(8) %6)
          to label %.noexc11 unwind label %40

.noexc11:                                         ; preds = %25
  %.pre.i8 = load ptr, ptr %6, align 8, !tbaa !95
  %.phi.trans.insert.i9 = getelementptr inbounds i8, ptr %.pre.i8, i64 -4
  %.pre2.i10 = load i32, ptr %.phi.trans.insert.i9, align 4, !tbaa !33
  br label %26

26:                                               ; preds = %.noexc11, %15
  %27 = phi i32 [ %.pre2.i10, %.noexc11 ], [ %21, %15 ]
  %28 = phi ptr [ %.pre.i8, %.noexc11 ], [ %17, %15 ]
  %29 = getelementptr inbounds i8, ptr %28, i64 -4
  %30 = zext i32 %27 to i64
  %31 = getelementptr inbounds nuw %"class.sat::literal", ptr %28, i64 %30
  store i32 %3, ptr %31, align 4, !tbaa !33
  %32 = add i32 %27, 1
  store i32 %32, ptr %29, align 4, !tbaa !33
  invoke void @_ZN3sat10aig_finder15validate_clauseERK7svectorINS_7literalEjERK6vectorIS3_Lb1EjE(ptr noundef nonnull align 8 dereferenceable(160) %0, ptr noundef nonnull align 8 dereferenceable(8) %6, ptr noundef nonnull align 8 dereferenceable(8) %4)
          to label %33 unwind label %40

33:                                               ; preds = %26
  %34 = load ptr, ptr %6, align 8, !tbaa !95
  %.not.i.i = icmp eq ptr %34, null
  br i1 %.not.i.i, label %_ZN6vectorIN3sat7literalELb0EjED2Ev.exit, label %35

35:                                               ; preds = %33
  %36 = getelementptr inbounds i8, ptr %34, i64 -8
  invoke void @_ZN6memory10deallocateEPv(ptr noundef nonnull %36)
          to label %_ZN6vectorIN3sat7literalELb0EjED2Ev.exit unwind label %37

37:                                               ; preds = %35
  %38 = landingpad { ptr, i32 }
          catch ptr null
  %39 = extractvalue { ptr, i32 } %38, 0
  call void @__clang_call_terminate(ptr %39) #25
  unreachable

_ZN6vectorIN3sat7literalELb0EjED2Ev.exit:         ; preds = %33, %35
  call void @llvm.lifetime.end.p0(i64 8, ptr nonnull %6) #23
  ret void

40:                                               ; preds = %25, %14, %5, %26
  %41 = landingpad { ptr, i32 }
          cleanup
  call void @_ZN6vectorIN3sat7literalELb0EjED2Ev(ptr noundef nonnull align 8 dereferenceable(8) %6) #23
  call void @llvm.lifetime.end.p0(i64 8, ptr nonnull %6) #23
  resume { ptr, i32 } %41
}